target datalayout = "e-m:e-p270:32:32-p271:32:32-p272:64:64-i64:64-i128:128-f80:128-n8:16:32:64-S128"
target triple = "x86_64-pc-linux-gnu"

%struct.VVCLocalContext = type { i8, i8, i8, i8, i32, i32, [4 x i8], [3276800 x i8], [16384 x i16], [16384 x i16], [16384 x i16], [32768 x i8], [332800 x i8], [368640 x i8], [368640 x i8], [17424 x i32], %struct.anon, %struct.anon.0, ptr, [2 x [1024 x %struct.ReconstructedArea]], [2 x i32], %struct.NeighbourAvailable, i32, ptr, ptr, ptr, ptr }
%struct.anon = type { i32, i8, i32, i32, i32, [3 x i32], i32, i32, i32, i32, i32, i32 }
%struct.anon.0 = type { i32, i32, i32 }
%struct.ReconstructedArea = type { i32, i32, i32, i32 }
%struct.NeighbourAvailable = type { i32, i32, i32, i32, i32 }
%struct.SliceContext = type { i32, %struct.VVCSH, ptr, i32, ptr, ptr }
%struct.VVCSH = type { ptr, i32, ptr, %struct.PredWeightTable, [2 x i8], i8, %struct.DBParams, [2 x i8], [2 x i8], [2 x i8], [2 x i8], i8, i8, [4050 x i32] }
%struct.PredWeightTable = type { [2 x i8], [2 x i8], [2 x [2 x [15 x i8]]], [2 x [3 x [15 x i16]]], [2 x [3 x [15 x i16]]] }
%struct.DBParams = type { [3 x i8], [3 x i8] }
%struct.H266RawSliceHeader = type { %struct.H266RawNALUnitHeader, i8, %struct.H266RawPictureHeader, i16, i16, [16 x i8], i8, i8, i8, i8, i8, [8 x i8], i8, i8, i8, i8, i8, i8, i8, i8, i8, %struct.H266RefPicLists, i8, [2 x i8], i8, i8, i8, %struct.H266RawPredWeightTable, i8, i8, i8, i8, i8, i8, i8, i8, i8, i8, i8, i8, i8, i8, i8, i8, i8, i8, i8, i8, i16, [256 x i8], i8, [4050 x i32], i16, i32, [2 x i8] }
%struct.H266RawNALUnitHeader = type { i8, i8, i8, i8 }
%struct.H266RawPictureHeader = type { i8, i8, i8, i8, i8, i8, i16, i8, [16 x i8], i8, i8, i8, i8, [8 x i8], i8, i8, i8, i8, i8, i8, i8, i8, i8, i8, i8, i8, i8, i8, [3 x i16], i8, [3 x i16], i8, %struct.H266RefPicLists, i8, i8, i8, i8, i8, i8, i8, i8, i8, i8, i8, i8, i8, i8, i8, i8, i8, i8, i8, i8, i8, i8, i8, i8, i8, %struct.H266RawPredWeightTable, i8, i8, i8, i8, i8, i8, i8, i8, i8, i8, i8, i8, i8, [256 x i8] }
%struct.H266RefPicLists = type { [2 x i8], [2 x i8], [2 x %struct.H266RefPicListStruct], [2 x [29 x i16]], [2 x [29 x i8]], [2 x [29 x i16]] }
%struct.H266RefPicListStruct = type { i8, i8, [29 x i8], [29 x i8], [29 x i8], [29 x i8], [29 x i8], [29 x i8] }
%struct.H266RawPredWeightTable = type { i8, i8, i8, [15 x i8], [15 x i8], [15 x i8], [15 x i8], [15 x [2 x i8]], [15 x [2 x i16]], i8, [15 x i8], [15 x i8], [15 x i8], [15 x i8], [15 x [2 x i8]], [15 x [2 x i16]], i8, i8 }
%struct.RefPicList = type { [29 x %struct.VVCRefPic], i32 }
%struct.VVCRefPic = type { ptr, i32, i32, i32, [2 x i32] }
%struct.VVCFrameContext = type { ptr, [17 x %struct.VVCFrame], ptr, ptr, %struct.VVCFrameParamSets, ptr, i32, i32, ptr, %struct.VVCDSPContext, %struct.VideoDSPContext, ptr, i64, ptr, ptr, ptr, ptr, %struct.anon.1 }
%struct.VVCFrame = type { ptr, ptr, ptr, ptr, ptr, ptr, i32, i32, i32, %struct.VVCWindow, i32, i32, ptr, ptr, i16, i8, ptr }
%struct.VVCWindow = type { i16, i16, i16, i16 }
%struct.VVCFrameParamSets = type { ptr, ptr, %struct.VVCPH, [8 x ptr], %struct.VVCLMCS, ptr }
%struct.VVCPH = type { ptr, ptr, i32, i32, i8, [3 x i16], i8, [3 x i16], %struct.PredWeightTable }
%struct.VVCLMCS = type { i8, i8, %union.anon, %union.anon, [17 x i16], [16 x i16] }
%union.anon = type { [4096 x i16] }
%struct.VVCDSPContext = type { %struct.VVCInterDSPContext, %struct.VVCIntraDSPContext, %struct.VVCItxDSPContext, %struct.VVCLMCSDSPContext, %struct.VVCLFDSPContext, %struct.VVCSAODSPContext, %struct.VVCALFDSPContext }
%struct.VVCInterDSPContext = type { [2 x [7 x [2 x [2 x ptr]]]], [2 x [7 x [2 x [2 x ptr]]]], [2 x [7 x [2 x [2 x ptr]]]], [2 x [7 x ptr]], [2 x [7 x ptr]], [2 x [7 x ptr]], ptr, ptr, ptr, ptr, ptr, ptr, ptr, ptr, ptr, ptr, ptr, [2 x [2 x ptr]] }
%struct.VVCIntraDSPContext = type { ptr, ptr, ptr, ptr, ptr, ptr, ptr, ptr, ptr, ptr }
%struct.VVCItxDSPContext = type { ptr, ptr, [3 x [6 x ptr]], ptr, ptr }
%struct.VVCLMCSDSPContext = type { ptr }
%struct.VVCLFDSPContext = type { [2 x ptr], [2 x ptr], [2 x ptr] }
%struct.VVCSAODSPContext = type { [9 x ptr], [9 x ptr], [2 x ptr] }
%struct.VVCALFDSPContext = type { [2 x ptr], ptr, ptr, ptr }
%struct.VideoDSPContext = type { ptr, ptr }
%struct.anon.1 = type { ptr, ptr, ptr, ptr, [2 x ptr], [2 x ptr], [2 x ptr], [2 x ptr], [2 x ptr], [3 x ptr], ptr, ptr, [2 x ptr], ptr, ptr, [2 x ptr], ptr, ptr, ptr, [2 x ptr], ptr, [3 x ptr], ptr, [2 x ptr], [2 x ptr], [2 x ptr], [2 x [3 x ptr]], [2 x ptr], [2 x ptr], [3 x ptr], [3 x ptr], [3 x [2 x ptr]], [3 x [2 x ptr]], ptr, ptr, ptr, [3 x ptr], %struct.anon.2 }
%struct.anon.2 = type { i32, i32, i32, i32, i32, i32, i32, i32, i32, i32, i32, i32 }

; Function Attrs: nounwind uwtable
define i32 @ff_vvc_no_backward_pred_flag(ptr noundef %0) #0 {
  %2 = alloca ptr, align 8
  %3 = alloca i32, align 4
  %4 = alloca i32, align 4
  %5 = alloca i32, align 4
  %6 = alloca ptr, align 8
  store ptr %0, ptr %2, align 8, !tbaa !14
  call void @llvm.lifetime.start.p0(i64 4, ptr %3) #9
  store i32 0, ptr %3, align 4, !tbaa !9
  call void @llvm.lifetime.start.p0(i64 4, ptr %4) #9
  call void @llvm.lifetime.start.p0(i64 4, ptr %5) #9
  call void @llvm.lifetime.start.p0(i64 8, ptr %6) #9
  %7 = load ptr, ptr %2, align 8, !tbaa !14
  %8 = getelementptr inbounds nuw %struct.VVCLocalContext, ptr %7, i32 0, i32 23
  %9 = load ptr, ptr %8, align 16, !tbaa !16
  %10 = getelementptr inbounds nuw %struct.SliceContext, ptr %9, i32 0, i32 4
  %11 = load ptr, ptr %10, align 8, !tbaa !26
  store ptr %11, ptr %6, align 8, !tbaa !33
  store i32 0, ptr %5, align 4, !tbaa !9
  br label %12

12:                                               ; preds = %58, %1
  %13 = load i32, ptr %5, align 4, !tbaa !9
  %14 = icmp slt i32 %13, 2
  br i1 %14, label %15, label %61

15:                                               ; preds = %12
  store i32 0, ptr %4, align 4, !tbaa !9
  br label %16

16:                                               ; preds = %54, %15
  %17 = load i32, ptr %4, align 4, !tbaa !9
  %18 = load ptr, ptr %2, align 8, !tbaa !14
  %19 = getelementptr inbounds nuw %struct.VVCLocalContext, ptr %18, i32 0, i32 23
  %20 = load ptr, ptr %19, align 16, !tbaa !16
  %21 = getelementptr inbounds nuw %struct.SliceContext, ptr %20, i32 0, i32 1
  %22 = getelementptr inbounds nuw %struct.VVCSH, ptr %21, i32 0, i32 0
  %23 = load ptr, ptr %22, align 8, !tbaa !34
  %24 = getelementptr inbounds nuw %struct.H266RawSliceHeader, ptr %23, i32 0, i32 54
  %25 = load i32, ptr %5, align 4, !tbaa !9
  %26 = sext i32 %25 to i64
  %27 = getelementptr inbounds [2 x i8], ptr %24, i64 0, i64 %26
  %28 = load i8, ptr %27, align 1, !tbaa !35
  %29 = zext i8 %28 to i32
  %30 = icmp slt i32 %17, %29
  br i1 %30, label %31, label %57

31:                                               ; preds = %16
  %32 = load ptr, ptr %6, align 8, !tbaa !33
  %33 = load i32, ptr %5, align 4, !tbaa !9
  %34 = sext i32 %33 to i64
  %35 = getelementptr inbounds %struct.RefPicList, ptr %32, i64 %34
  %36 = getelementptr inbounds nuw %struct.RefPicList, ptr %35, i32 0, i32 0
  %37 = load i32, ptr %4, align 4, !tbaa !9
  %38 = sext i32 %37 to i64
  %39 = getelementptr inbounds [29 x %struct.VVCRefPic], ptr %36, i64 0, i64 %38
  %40 = getelementptr inbounds nuw %struct.VVCRefPic, ptr %39, i32 0, i32 1
  %41 = load i32, ptr %40, align 8, !tbaa !36
  %42 = load ptr, ptr %2, align 8, !tbaa !14
  %43 = getelementptr inbounds nuw %struct.VVCLocalContext, ptr %42, i32 0, i32 24
  %44 = load ptr, ptr %43, align 8, !tbaa !39
  %45 = getelementptr inbounds nuw %struct.VVCFrameContext, ptr %44, i32 0, i32 4
  %46 = getelementptr inbounds nuw %struct.VVCFrameParamSets, ptr %45, i32 0, i32 2
  %47 = getelementptr inbounds nuw %struct.VVCPH, ptr %46, i32 0, i32 3
  %48 = load i32, ptr %47, align 4, !tbaa !40
  %49 = icmp sgt i32 %41, %48
  br i1 %49, label %50, label %53

50:                                               ; preds = %31
  %51 = load i32, ptr %3, align 4, !tbaa !9
  %52 = add nsw i32 %51, 1
  store i32 %52, ptr %3, align 4, !tbaa !9
  br label %57

53:                                               ; preds = %31
  br label %54

54:                                               ; preds = %53
  %55 = load i32, ptr %4, align 4, !tbaa !9
  %56 = add nsw i32 %55, 1
  store i32 %56, ptr %4, align 4, !tbaa !9
  br label %16, !llvm.loop !74

57:                                               ; preds = %50, %16
  br label %58

58:                                               ; preds = %57
  %59 = load i32, ptr %5, align 4, !tbaa !9
  %60 = add nsw i32 %59, 1
  store i32 %60, ptr %5, align 4, !tbaa !9
  br label %12, !llvm.loop !76

61:                                               ; preds = %12
  %62 = load i32, ptr %3, align 4, !tbaa !9
  %63 = icmp ne i32 %62, 0
  %64 = xor i1 %63, true
  %65 = zext i1 %64 to i32
  call void @llvm.lifetime.end.p0(i64 8, ptr %6) #9
  call void @llvm.lifetime.end.p0(i64 4, ptr %5) #9
  call void @llvm.lifetime.end.p0(i64 4, ptr %4) #9
  call void @llvm.lifetime.end.p0(i64 4, ptr %3) #9
  ret i32 %65
}