; Function Attrs: nofree norecurse nosync nounwind memory(read, inaccessiblemem: none) uwtable
define range(i32 0, 2) i32 @ff_vvc_no_backward_pred_flag(ptr noundef readonly captures(none) %0) local_unnamed_addr #3 {
  %2 = getelementptr inbounds nuw i8, ptr %0, i64 4580544
  %3 = load ptr, ptr %2, align 16, !tbaa !10
  %4 = getelementptr inbounds nuw i8, ptr %3, i64 16696
  %5 = load ptr, ptr %4, align 8, !tbaa !21
  %6 = getelementptr inbounds nuw i8, ptr %3, i64 8
  %7 = load ptr, ptr %6, align 8, !tbaa !28
  %8 = getelementptr inbounds nuw i8, ptr %7, i64 18816
  %9 = getelementptr inbounds nuw i8, ptr %0, i64 4580552
  br label %.preheader

.preheader:                                       ; preds = %1, %.loopexit
  %10 = phi i1 [ true, %1 ], [ false, %.loopexit ]
  %indvars.iv19 = phi i64 [ 0, %1 ], [ 1, %.loopexit ]
  %.016 = phi i32 [ 0, %1 ], [ %.1, %.loopexit ]
  %11 = getelementptr inbounds nuw [2 x i8], ptr %8, i64 0, i64 %indvars.iv19
  %12 = load i8, ptr %11, align 1, !tbaa !29
  %.not17 = icmp eq i8 %12, 0
  br i1 %.not17, label %.loopexit, label %.lr.ph

.lr.ph:                                           ; preds = %.preheader
  %13 = getelementptr inbounds nuw %struct.RefPicList, ptr %5, i64 %indvars.iv19
  %14 = load ptr, ptr %9, align 8, !tbaa !30
  %15 = getelementptr inbounds nuw i8, ptr %14, i64 1964
  %16 = load i32, ptr %15, align 4, !tbaa !31
  %wide.trip.count = zext i8 %12 to i64
  br label %18

17:                                               ; preds = %18
  %indvars.iv.next = add nuw nsw i64 %indvars.iv, 1
  %exitcond.not = icmp eq i64 %indvars.iv.next, %wide.trip.count
  br i1 %exitcond.not, label %.loopexit, label %18, !llvm.loop !66

18:                                               ; preds = %.lr.ph, %17
  %indvars.iv = phi i64 [ 0, %.lr.ph ], [ %indvars.iv.next, %17 ]
  %19 = getelementptr inbounds nuw [29 x %struct.VVCRefPic], ptr %13, i64 0, i64 %indvars.iv, i32 1
  %20 = load i32, ptr %19, align 8, !tbaa !68
  %21 = icmp sgt i32 %20, %16
  br i1 %21, label %22, label %17

22:                                               ; preds = %18
  %23 = add nsw i32 %.016, 1
  br label %.loopexit

.loopexit:                                        ; preds = %17, %.preheader, %22
  %.1 = phi i32 [ %23, %22 ], [ %.016, %.preheader ], [ %.016, %17 ]
  br i1 %10, label %.preheader, label %24, !llvm.loop !70

24:                                               ; preds = %.loopexit
  %.not = icmp eq i32 %.1, 0
  %25 = zext i1 %.not to i32
  ret i32 %25
}